; Function Attrs: nounwind sspstrong uwtable
define internal i32 @bdrv_mirror_top_pwrite_zeroes(ptr noundef readonly captures(none) %bs, i64 noundef %offset, i64 noundef %bytes, i32 noundef %flags) #0 {
entry:
  %opaque = getelementptr inbounds nuw i8, ptr %bs, i64 24
  %0 = load ptr, ptr %opaque, align 8
  %1 = load ptr, ptr %0, align 8
  %tobool.not.i = icmp eq ptr %1, null
  br i1 %tobool.not.i, label %should_copy_to_target.exit, label %land.lhs.true.i

land.lhs.true.i:                                  ; preds = %entry
  %ret.i = getelementptr inbounds nuw i8, ptr %1, i64 736
  %2 = load i32, ptr %ret.i, align 8
  %cmp.i = icmp sgt i32 %2, -1
  br i1 %cmp.i, label %land.lhs.true2.i, label %should_copy_to_target.exit

land.lhs.true2.i:                                 ; preds = %land.lhs.true.i
  %call.i = tail call zeroext i1 @job_is_cancelled(ptr noundef nonnull %1) #12
  br i1 %call.i, label %should_copy_to_target.exit, label %while.end.i

while.end.i:                                      ; preds = %land.lhs.true2.i
  %3 = load ptr, ptr %0, align 8
  %copy_mode.i = getelementptr inbounds nuw i8, ptr %3, i64 588
  %4 = load atomic i32, ptr %copy_mode.i monotonic, align 4
  %cmp6.i = icmp eq i32 %4, 1
  br label %should_copy_to_target.exit

should_copy_to_target.exit:                       ; preds = %entry, %land.lhs.true.i, %land.lhs.true2.i, %while.end.i
  %5 = phi i1 [ false, %land.lhs.true2.i ], [ false, %land.lhs.true.i ], [ false, %entry ], [ %cmp6.i, %while.end.i ]
  %call1 = tail call i32 @bdrv_mirror_top_do_write(ptr noundef nonnull %bs, i32 noundef 1, i1 noundef zeroext %5, i64 noundef %offset, i64 noundef %bytes, ptr noundef null, i32 noundef %flags)
  ret i32 %call1
}